; Function Attrs: mustprogress uwtable
define void @_ZN9grpc_core17ChannelIdleFilter8ShutdownEv(ptr nocapture noundef nonnull align 8 dereferenceable(64) %this) unnamed_addr #3 align 2 {
entry:
  %idle_filter_state_.i = getelementptr inbounds i8, ptr %this, i64 40
  %0 = load ptr, ptr %idle_filter_state_.i, align 8
  tail call void @_ZN9grpc_core15IdleFilterState17IncreaseCallCountEv(ptr noundef nonnull align 8 dereferenceable(8) %0)
  %activity_ = getelementptr inbounds i8, ptr %this, i64 56
  %1 = atomicrmw xchg ptr %activity_, i64 0 acq_rel, align 8
  %cmp.i.i = icmp eq i64 %1, 0
  br i1 %cmp.i.i, label %_ZN9grpc_core12SingleSetPtrINS_8ActivityENS_16OrphanableDeleteEE5ResetEv.exit, label %if.end.i.i

if.end.i.i:                                       ; preds = %entry
  %atomic-temp.i.0.i.i = inttoptr i64 %1 to ptr
  %vtable.i.i.i = load ptr, ptr %atomic-temp.i.0.i.i, align 8
  %2 = load ptr, ptr %vtable.i.i.i, align 8
  tail call void %2(ptr noundef nonnull align 8 dereferenceable(8) %atomic-temp.i.0.i.i)
  br label %_ZN9grpc_core12SingleSetPtrINS_8ActivityENS_16OrphanableDeleteEE5ResetEv.exit

_ZN9grpc_core12SingleSetPtrINS_8ActivityENS_16OrphanableDeleteEE5ResetEv.exit: ; preds = %entry, %if.end.i.i
  ret void
}